target datalayout = "e-m:e-p270:32:32-p271:32:32-p272:64:64-i64:64-i128:128-f80:128-n8:16:32:64-S128"
target triple = "x86_64-unknown-linux-gnu"

@.str = private unnamed_addr constant [21 x i8] c"COMPUTE_ELIM_SYMBOLS\00", align 1
@.str.1 = private unnamed_addr constant [20 x i8] c"COMPUTE_MINISCOPING\00", align 1
@.str.2 = private unnamed_addr constant [31 x i8] c"COMPUTE_AGGRESSIVE_MINISCOPING\00", align 1
@.str.3 = private unnamed_addr constant [20 x i8] c"COMPUTE_EXT_REWRITE\00", align 1
@.str.4 = private unnamed_addr constant [22 x i8] c"COMPUTE_PROCESS_TERMS\00", align 1
@.str.5 = private unnamed_addr constant [15 x i8] c"COMPUTE_PRENEX\00", align 1
@.str.6 = private unnamed_addr constant [24 x i8] c"COMPUTE_VAR_ELIMINATION\00", align 1
@.str.7 = private unnamed_addr constant [19 x i8] c"COMPUTE_COND_SPLIT\00", align 1
@.str.8 = private unnamed_addr constant [19 x i8] c"UnknownRewriteStep\00", align 1

; Function Attrs: mustprogress uwtable
define hidden noundef nonnull align 8 dereferenceable(8) ptr @_ZN4cvc58internal6theory11quantifierslsERSoNS2_11RewriteStepE(ptr noundef nonnull align 8 dereferenceable(8) %out, i32 noundef %s) #4 {
entry:
  %out.addr = alloca ptr, align 8
  %s.addr = alloca i32, align 4
  store ptr %out, ptr %out.addr, align 8
  store i32 %s, ptr %s.addr, align 4
  %0 = load i32, ptr %s.addr, align 4
  switch i32 %0, label %sw.default [
    i32 0, label %sw.bb
    i32 1, label %sw.bb1
    i32 2, label %sw.bb3
    i32 7, label %sw.bb5
    i32 3, label %sw.bb7
    i32 4, label %sw.bb9
    i32 5, label %sw.bb11
    i32 6, label %sw.bb13
  ]

sw.bb:                                            ; preds = %entry
  %1 = load ptr, ptr %out.addr, align 8
  %call = call noundef nonnull align 8 dereferenceable(8) ptr @_ZStlsISt11char_traitsIcEERSt13basic_ostreamIcT_ES5_PKc(ptr noundef nonnull align 8 dereferenceable(8) %1, ptr noundef @.str)
  br label %sw.epilog

sw.bb1:                                           ; preds = %entry
  %2 = load ptr, ptr %out.addr, align 8
  %call2 = call noundef nonnull align 8 dereferenceable(8) ptr @_ZStlsISt11char_traitsIcEERSt13basic_ostreamIcT_ES5_PKc(ptr noundef nonnull align 8 dereferenceable(8) %2, ptr noundef @.str.1)
  br label %sw.epilog

sw.bb3:                                           ; preds = %entry
  %3 = load ptr, ptr %out.addr, align 8
  %call4 = call noundef nonnull align 8 dereferenceable(8) ptr @_ZStlsISt11char_traitsIcEERSt13basic_ostreamIcT_ES5_PKc(ptr noundef nonnull align 8 dereferenceable(8) %3, ptr noundef @.str.2)
  br label %sw.epilog

sw.bb5:                                           ; preds = %entry
  %4 = load ptr, ptr %out.addr, align 8
  %call6 = call noundef nonnull align 8 dereferenceable(8) ptr @_ZStlsISt11char_traitsIcEERSt13basic_ostreamIcT_ES5_PKc(ptr noundef nonnull align 8 dereferenceable(8) %4, ptr noundef @.str.3)
  br label %sw.epilog

sw.bb7:                                           ; preds = %entry
  %5 = load ptr, ptr %out.addr, align 8
  %call8 = call noundef nonnull align 8 dereferenceable(8) ptr @_ZStlsISt11char_traitsIcEERSt13basic_ostreamIcT_ES5_PKc(ptr noundef nonnull align 8 dereferenceable(8) %5, ptr noundef @.str.4)
  br label %sw.epilog

sw.bb9:                                           ; preds = %entry
  %6 = load ptr, ptr %out.addr, align 8
  %call10 = call noundef nonnull align 8 dereferenceable(8) ptr @_ZStlsISt11char_traitsIcEERSt13basic_ostreamIcT_ES5_PKc(ptr noundef nonnull align 8 dereferenceable(8) %6, ptr noundef @.str.5)
  br label %sw.epilog

sw.bb11:                                          ; preds = %entry
  %7 = load ptr, ptr %out.addr, align 8
  %call12 = call noundef nonnull align 8 dereferenceable(8) ptr @_ZStlsISt11char_traitsIcEERSt13basic_ostreamIcT_ES5_PKc(ptr noundef nonnull align 8 dereferenceable(8) %7, ptr noundef @.str.6)
  br label %sw.epilog

sw.bb13:                                          ; preds = %entry
  %8 = load ptr, ptr %out.addr, align 8
  %call14 = call noundef nonnull align 8 dereferenceable(8) ptr @_ZStlsISt11char_traitsIcEERSt13basic_ostreamIcT_ES5_PKc(ptr noundef nonnull align 8 dereferenceable(8) %8, ptr noundef @.str.7)
  br label %sw.epilog

sw.default:                                       ; preds = %entry
  %9 = load ptr, ptr %out.addr, align 8
  %call15 = call noundef nonnull align 8 dereferenceable(8) ptr @_ZStlsISt11char_traitsIcEERSt13basic_ostreamIcT_ES5_PKc(ptr noundef nonnull align 8 dereferenceable(8) %9, ptr noundef @.str.8)
  br label %sw.epilog

sw.epilog:                                        ; preds = %sw.default, %sw.bb13, %sw.bb11, %sw.bb9, %sw.bb7, %sw.bb5, %sw.bb3, %sw.bb1, %sw.bb
  %10 = load ptr, ptr %out.addr, align 8
  ret ptr %10
}